target datalayout = "e-m:e-p270:32:32-p271:32:32-p272:64:64-i64:64-i128:128-f80:128-n8:16:32:64-S128"
target triple = "x86_64-pc-linux-gnu"

%"class.nanogui::Color" = type { %"struct.nanogui::Array.10" }
%"struct.nanogui::Array.10" = type { [4 x float] }
%"struct.nanogui::Array" = type { [2 x i32] }
%"class.nanogui::RenderPass" = type <{ %"class.nanogui::Object.base", [4 x i8], %"class.std::vector.0", i8, [7 x i8], %"class.std::vector.5", float, i8, [3 x i8], %"struct.nanogui::Array", %"struct.nanogui::Array", %"struct.nanogui::Array", i32, i8, [3 x i8], i32, [4 x i8], %"class.nanogui::ref", i8, [3 x i8], i32, [4 x i32], [4 x i32], i8, i8, i8, i8, i8, [3 x i8] }>
%"class.nanogui::Object.base" = type <{ ptr, %"struct.std::atomic" }>
%"struct.std::atomic" = type { %"struct.std::__atomic_base" }
%"struct.std::__atomic_base" = type { i32 }
%"class.std::vector.0" = type { %"struct.std::_Vector_base.1" }
%"struct.std::_Vector_base.1" = type { %"struct.std::_Vector_base<nanogui::ref<nanogui::Object>, std::allocator<nanogui::ref<nanogui::Object>>>::_Vector_impl" }
%"struct.std::_Vector_base<nanogui::ref<nanogui::Object>, std::allocator<nanogui::ref<nanogui::Object>>>::_Vector_impl" = type { %"struct.std::_Vector_base<nanogui::ref<nanogui::Object>, std::allocator<nanogui::ref<nanogui::Object>>>::_Vector_impl_data" }
%"struct.std::_Vector_base<nanogui::ref<nanogui::Object>, std::allocator<nanogui::ref<nanogui::Object>>>::_Vector_impl_data" = type { ptr, ptr, ptr }
%"class.std::vector.5" = type { %"struct.std::_Vector_base.6" }
%"struct.std::_Vector_base.6" = type { %"struct.std::_Vector_base<nanogui::Color, std::allocator<nanogui::Color>>::_Vector_impl" }
%"struct.std::_Vector_base<nanogui::Color, std::allocator<nanogui::Color>>::_Vector_impl" = type { %"struct.std::_Vector_base<nanogui::Color, std::allocator<nanogui::Color>>::_Vector_impl_data" }
%"struct.std::_Vector_base<nanogui::Color, std::allocator<nanogui::Color>>::_Vector_impl_data" = type { ptr, ptr, ptr }
%"class.nanogui::ref" = type { ptr }

; Function Attrs: mustprogress nounwind uwtable
define linkonce_odr hidden noundef nonnull align 4 dereferenceable(16) ptr @_ZNSt6vectorIN7nanogui5ColorESaIS1_EEixEm(ptr noundef nonnull align 8 dereferenceable(24) %0, i64 noundef %1) #1 comdat align 2 {
  %3 = alloca ptr, align 8
  %4 = alloca i64, align 8
  store ptr %0, ptr %3, align 8
  store i64 %1, ptr %4, align 8
  %5 = load ptr, ptr %3, align 8
  %6 = getelementptr inbounds %"struct.std::_Vector_base.6", ptr %5, i32 0, i32 0
  %7 = getelementptr inbounds %"struct.std::_Vector_base<nanogui::Color, std::allocator<nanogui::Color>>::_Vector_impl_data", ptr %6, i32 0, i32 0
  %8 = load ptr, ptr %7, align 8
  %9 = load i64, ptr %4, align 8
  %10 = getelementptr inbounds %"class.nanogui::Color", ptr %8, i64 %9
  ret ptr %10
}

; Function Attrs: mustprogress nounwind uwtable
define linkonce_odr hidden noundef zeroext i1 @_ZNK7nanogui3refINS_6ObjectEEeqERKS2_(ptr noundef nonnull align 8 dereferenceable(8) %0, ptr noundef nonnull align 8 dereferenceable(8) %1) #1 comdat align 2 {
  %3 = alloca ptr, align 8
  %4 = alloca ptr, align 8
  store ptr %0, ptr %3, align 8
  store ptr %1, ptr %4, align 8
  %5 = load ptr, ptr %3, align 8
  %6 = getelementptr inbounds %"class.nanogui::ref", ptr %5, i32 0, i32 0
  %7 = load ptr, ptr %6, align 8
  %8 = load ptr, ptr %4, align 8
  %9 = getelementptr inbounds %"class.nanogui::ref", ptr %8, i32 0, i32 0
  %10 = load ptr, ptr %9, align 8
  %11 = icmp eq ptr %7, %10
  ret i1 %11
}

; Function Attrs: mustprogress nounwind uwtable
define linkonce_odr hidden noundef ptr @_ZN7nanogui3refINS_6ObjectEEcvPS1_Ev(ptr noundef nonnull align 8 dereferenceable(8) %0) #1 comdat align 2 {
  %2 = alloca ptr, align 8
  store ptr %0, ptr %2, align 8
  %3 = load ptr, ptr %2, align 8
  %4 = getelementptr inbounds %"class.nanogui::ref", ptr %3, i32 0, i32 0
  %5 = load ptr, ptr %4, align 8
  ret ptr %5
}

; Function Attrs: mustprogress nounwind uwtable
define linkonce_odr hidden noundef nonnull align 8 dereferenceable(8) ptr @_ZNSt6vectorIN7nanogui3refINS0_6ObjectEEESaIS3_EEixEm(ptr noundef nonnull align 8 dereferenceable(24) %0, i64 noundef %1) #1 comdat align 2 {
  %3 = alloca ptr, align 8
  %4 = alloca i64, align 8
  store ptr %0, ptr %3, align 8
  store i64 %1, ptr %4, align 8
  %5 = load ptr, ptr %3, align 8
  %6 = getelementptr inbounds %"struct.std::_Vector_base.1", ptr %5, i32 0, i32 0
  %7 = getelementptr inbounds %"struct.std::_Vector_base<nanogui::ref<nanogui::Object>, std::allocator<nanogui::ref<nanogui::Object>>>::_Vector_impl_data", ptr %6, i32 0, i32 0
  %8 = load ptr, ptr %7, align 8
  %9 = load i64, ptr %4, align 8
  %10 = getelementptr inbounds %"class.nanogui::ref", ptr %8, i64 %9
  ret ptr %10
}

; Function Attrs: mustprogress nounwind uwtable
define linkonce_odr hidden noundef i64 @_ZNKSt6vectorIN7nanogui3refINS0_6ObjectEEESaIS3_EE4sizeEv(ptr noundef nonnull align 8 dereferenceable(24) %0) #1 comdat align 2 {
  %2 = alloca ptr, align 8
  store ptr %0, ptr %2, align 8
  %3 = load ptr, ptr %2, align 8
  %4 = getelementptr inbounds %"struct.std::_Vector_base.1", ptr %3, i32 0, i32 0
  %5 = getelementptr inbounds %"struct.std::_Vector_base<nanogui::ref<nanogui::Object>, std::allocator<nanogui::ref<nanogui::Object>>>::_Vector_impl_data", ptr %4, i32 0, i32 1
  %6 = load ptr, ptr %5, align 8
  %7 = getelementptr inbounds %"struct.std::_Vector_base.1", ptr %3, i32 0, i32 0
  %8 = getelementptr inbounds %"struct.std::_Vector_base<nanogui::ref<nanogui::Object>, std::allocator<nanogui::ref<nanogui::Object>>>::_Vector_impl_data", ptr %7, i32 0, i32 0
  %9 = load ptr, ptr %8, align 8
  %10 = ptrtoint ptr %6 to i64
  %11 = ptrtoint ptr %9 to i64
  %12 = sub i64 %10, %11
  %13 = sdiv exact i64 %12, 8
  ret i64 %13
}

; Function Attrs: mustprogress uwtable
define hidden void @_ZN7nanogui10RenderPass5beginEv(ptr noundef nonnull align 8 dereferenceable(173) %0) #0 align 2 {
  %2 = alloca ptr, align 8
  %3 = alloca i8, align 1
  %4 = alloca i64, align 8
  store ptr %0, ptr %2, align 8
  %5 = load ptr, ptr %2, align 8
  %6 = getelementptr inbounds %"class.nanogui::RenderPass", ptr %5, i32 0, i32 18
  store i8 1, ptr %6, align 8
  %7 = getelementptr inbounds %"class.nanogui::RenderPass", ptr %5, i32 0, i32 21
  %8 = getelementptr inbounds [4 x i32], ptr %7, i64 0, i64 0
  call void @glGetIntegerv(i32 noundef 2978, ptr noundef %8)
  %9 = getelementptr inbounds %"class.nanogui::RenderPass", ptr %5, i32 0, i32 22
  %10 = getelementptr inbounds [4 x i32], ptr %9, i64 0, i64 0
  call void @glGetIntegerv(i32 noundef 3088, ptr noundef %10)
  call void @glGetBooleanv(i32 noundef 2930, ptr noundef %3)
  %11 = load i8, ptr %3, align 1
  %12 = icmp ne i8 %11, 0
  %13 = getelementptr inbounds %"class.nanogui::RenderPass", ptr %5, i32 0, i32 24
  %14 = zext i1 %12 to i8
  store i8 %14, ptr %13, align 1
  %15 = call zeroext i8 @glIsEnabled(i32 noundef 2929)
  %16 = icmp ne i8 %15, 0
  %17 = getelementptr inbounds %"class.nanogui::RenderPass", ptr %5, i32 0, i32 23
  %18 = zext i1 %16 to i8
  store i8 %18, ptr %17, align 8
  %19 = call zeroext i8 @glIsEnabled(i32 noundef 3089)
  %20 = icmp ne i8 %19, 0
  %21 = getelementptr inbounds %"class.nanogui::RenderPass", ptr %5, i32 0, i32 25
  %22 = zext i1 %20 to i8
  store i8 %22, ptr %21, align 2
  %23 = call zeroext i8 @glIsEnabled(i32 noundef 2884)
  %24 = icmp ne i8 %23, 0
  %25 = getelementptr inbounds %"class.nanogui::RenderPass", ptr %5, i32 0, i32 26
  %26 = zext i1 %24 to i8
  store i8 %26, ptr %25, align 1
  %27 = call zeroext i8 @glIsEnabled(i32 noundef 3042)
  %28 = icmp ne i8 %27, 0
  %29 = getelementptr inbounds %"class.nanogui::RenderPass", ptr %5, i32 0, i32 27
  %30 = zext i1 %28 to i8
  store i8 %30, ptr %29, align 4
  %31 = getelementptr inbounds %"class.nanogui::RenderPass", ptr %5, i32 0, i32 20
  %32 = load i32, ptr %31, align 4
  call void @glBindFramebuffer(i32 noundef 36160, i32 noundef %32)
  %33 = getelementptr inbounds %"class.nanogui::RenderPass", ptr %5, i32 0, i32 9
  %34 = getelementptr inbounds %"class.nanogui::RenderPass", ptr %5, i32 0, i32 10
  call void @_ZN7nanogui10RenderPass12set_viewportERKNS_5ArrayIiLm2EEES4_(ptr noundef nonnull align 8 dereferenceable(173) %5, ptr noundef nonnull align 4 dereferenceable(8) %33, ptr noundef nonnull align 4 dereferenceable(8) %34)
  %35 = getelementptr inbounds %"class.nanogui::RenderPass", ptr %5, i32 0, i32 3
  %36 = load i8, ptr %35, align 8
  %37 = trunc i8 %36 to i1
  br i1 %37, label %38, label %85

38:                                               ; preds = %1
  store i64 0, ptr %4, align 8
  br label %39

39:                                               ; preds = %81, %38
  %40 = load i64, ptr %4, align 8
  %41 = getelementptr inbounds %"class.nanogui::RenderPass", ptr %5, i32 0, i32 2
  %42 = call noundef i64 @_ZNKSt6vectorIN7nanogui3refINS0_6ObjectEEESaIS3_EE4sizeEv(ptr noundef nonnull align 8 dereferenceable(24) %41) #12
  %43 = icmp ult i64 %40, %42
  br i1 %43, label %44, label %84

44:                                               ; preds = %39
  %45 = load i64, ptr %4, align 8
  %46 = icmp eq i64 %45, 0
  br i1 %46, label %47, label %67

47:                                               ; preds = %44
  %48 = getelementptr inbounds %"class.nanogui::RenderPass", ptr %5, i32 0, i32 2
  %49 = call noundef nonnull align 8 dereferenceable(8) ptr @_ZNSt6vectorIN7nanogui3refINS0_6ObjectEEESaIS3_EEixEm(ptr noundef nonnull align 8 dereferenceable(24) %48, i64 noundef 0) #12
  %50 = call noundef ptr @_ZN7nanogui3refINS_6ObjectEEcvPS1_Ev(ptr noundef nonnull align 8 dereferenceable(8) %49)
  %51 = icmp ne ptr %50, null
  br i1 %51, label %52, label %67

52:                                               ; preds = %47
  %53 = getelementptr inbounds %"class.nanogui::RenderPass", ptr %5, i32 0, i32 2
  %54 = call noundef nonnull align 8 dereferenceable(8) ptr @_ZNSt6vectorIN7nanogui3refINS0_6ObjectEEESaIS3_EEixEm(ptr noundef nonnull align 8 dereferenceable(24) %53, i64 noundef 0) #12
  %55 = getelementptr inbounds %"class.nanogui::RenderPass", ptr %5, i32 0, i32 2
  %56 = call noundef nonnull align 8 dereferenceable(8) ptr @_ZNSt6vectorIN7nanogui3refINS0_6ObjectEEESaIS3_EEixEm(ptr noundef nonnull align 8 dereferenceable(24) %55, i64 noundef 1) #12
  %57 = call noundef zeroext i1 @_ZNK7nanogui3refINS_6ObjectEEeqERKS2_(ptr noundef nonnull align 8 dereferenceable(8) %54, ptr noundef nonnull align 8 dereferenceable(8) %56)
  br i1 %57, label %58, label %64

58:                                               ; preds = %52
  %59 = getelementptr inbounds %"class.nanogui::RenderPass", ptr %5, i32 0, i32 6
  %60 = load float, ptr %59, align 8
  %61 = getelementptr inbounds %"class.nanogui::RenderPass", ptr %5, i32 0, i32 7
  %62 = load i8, ptr %61, align 4
  %63 = zext i8 %62 to i32
  call void @glClearBufferfi(i32 noundef 34041, i32 noundef 0, float noundef %60, i32 noundef %63)
  br label %66

64:                                               ; preds = %52
  %65 = getelementptr inbounds %"class.nanogui::RenderPass", ptr %5, i32 0, i32 6
  call void @glClearBufferfv(i32 noundef 6145, i32 noundef 0, ptr noundef %65)
  br label %66

66:                                               ; preds = %64, %58
  br label %67

67:                                               ; preds = %66, %47, %44
  %68 = load i64, ptr %4, align 8
  %69 = icmp uge i64 %68, 2
  br i1 %69, label %70, label %80

70:                                               ; preds = %67
  %71 = load i64, ptr %4, align 8
  %72 = trunc i64 %71 to i32
  %73 = sub nsw i32 %72, 2
  %74 = getelementptr inbounds %"class.nanogui::RenderPass", ptr %5, i32 0, i32 5
  %75 = load i64, ptr %4, align 8
  %76 = sub i64 %75, 2
  %77 = call noundef nonnull align 4 dereferenceable(16) ptr @_ZNSt6vectorIN7nanogui5ColorESaIS1_EEixEm(ptr noundef nonnull align 8 dereferenceable(24) %74, i64 noundef %76) #12
  %78 = getelementptr inbounds %"struct.nanogui::Array.10", ptr %77, i32 0, i32 0
  %79 = getelementptr inbounds [4 x float], ptr %78, i64 0, i64 0
  call void @glClearBufferfv(i32 noundef 6144, i32 noundef %73, ptr noundef %79)
  br label %80

80:                                               ; preds = %70, %67
  br label %81

81:                                               ; preds = %80
  %82 = load i64, ptr %4, align 8
  %83 = add i64 %82, 1
  store i64 %83, ptr %4, align 8
  br label %39, !llvm.loop !10

84:                                               ; preds = %39
  br label %85

85:                                               ; preds = %84, %1
  %86 = getelementptr inbounds %"class.nanogui::RenderPass", ptr %5, i32 0, i32 12
  %87 = load i32, ptr %86, align 8
  %88 = getelementptr inbounds %"class.nanogui::RenderPass", ptr %5, i32 0, i32 13
  %89 = load i8, ptr %88, align 4
  %90 = trunc i8 %89 to i1
  call void @_ZN7nanogui10RenderPass14set_depth_testENS0_9DepthTestEb(ptr noundef nonnull align 8 dereferenceable(173) %5, i32 noundef %87, i1 noundef zeroext %90)
  %91 = getelementptr inbounds %"class.nanogui::RenderPass", ptr %5, i32 0, i32 15
  %92 = load i32, ptr %91, align 8
  call void @_ZN7nanogui10RenderPass13set_cull_modeENS0_8CullModeE(ptr noundef nonnull align 8 dereferenceable(173) %5, i32 noundef %92)
  %93 = getelementptr inbounds %"class.nanogui::RenderPass", ptr %5, i32 0, i32 27
  %94 = load i8, ptr %93, align 4
  %95 = trunc i8 %94 to i1
  br i1 %95, label %96, label %97

96:                                               ; preds = %85
  call void @glDisable(i32 noundef 3042)
  br label %97

97:                                               ; preds = %96, %85
  ret void
}