; Function Attrs: mustprogress uwtable
define hidden void @_ZN7nanogui10RenderPass5beginEv(ptr noundef nonnull align 8 dereferenceable(173) %0) local_unnamed_addr #5 align 2 {
  %2 = alloca i8, align 1
  %3 = getelementptr inbounds i8, ptr %0, i64 128
  store i8 1, ptr %3, align 8
  %4 = getelementptr inbounds i8, ptr %0, i64 136
  tail call void @glGetIntegerv(i32 noundef 2978, ptr noundef nonnull %4)
  %5 = getelementptr inbounds i8, ptr %0, i64 152
  tail call void @glGetIntegerv(i32 noundef 3088, ptr noundef nonnull %5)
  call void @glGetBooleanv(i32 noundef 2930, ptr noundef nonnull %2)
  %6 = load i8, ptr %2, align 1
  %7 = icmp ne i8 %6, 0
  %8 = getelementptr inbounds i8, ptr %0, i64 169
  %9 = zext i1 %7 to i8
  store i8 %9, ptr %8, align 1
  %10 = call zeroext i8 @glIsEnabled(i32 noundef 2929)
  %11 = icmp ne i8 %10, 0
  %12 = getelementptr inbounds i8, ptr %0, i64 168
  %13 = zext i1 %11 to i8
  store i8 %13, ptr %12, align 8
  %14 = call zeroext i8 @glIsEnabled(i32 noundef 3089)
  %15 = icmp ne i8 %14, 0
  %16 = getelementptr inbounds i8, ptr %0, i64 170
  %17 = zext i1 %15 to i8
  store i8 %17, ptr %16, align 2
  %18 = call zeroext i8 @glIsEnabled(i32 noundef 2884)
  %19 = icmp ne i8 %18, 0
  %20 = getelementptr inbounds i8, ptr %0, i64 171
  %21 = zext i1 %19 to i8
  store i8 %21, ptr %20, align 1
  %22 = call zeroext i8 @glIsEnabled(i32 noundef 3042)
  %23 = icmp ne i8 %22, 0
  %24 = getelementptr inbounds i8, ptr %0, i64 172
  %25 = zext i1 %23 to i8
  store i8 %25, ptr %24, align 4
  %26 = getelementptr inbounds i8, ptr %0, i64 132
  %27 = load i32, ptr %26, align 4
  call void @glBindFramebuffer(i32 noundef 36160, i32 noundef %27)
  %28 = getelementptr inbounds i8, ptr %0, i64 80
  %29 = getelementptr inbounds i8, ptr %0, i64 88
  call void @_ZN7nanogui10RenderPass12set_viewportERKNS_5ArrayIiLm2EEES4_(ptr noundef nonnull align 8 dereferenceable(173) %0, ptr noundef nonnull align 4 dereferenceable(8) %28, ptr noundef nonnull align 4 dereferenceable(8) %29)
  %30 = getelementptr inbounds i8, ptr %0, i64 40
  %31 = load i8, ptr %30, align 8
  %32 = and i8 %31, 1
  %.not = icmp eq i8 %32, 0
  br i1 %.not, label %.loopexit, label %.preheader

.preheader:                                       ; preds = %1
  %33 = getelementptr inbounds i8, ptr %0, i64 16
  %34 = getelementptr inbounds i8, ptr %0, i64 24
  %35 = load ptr, ptr %34, align 8
  %36 = load ptr, ptr %33, align 8
  %.not10 = icmp eq ptr %35, %36
  br i1 %.not10, label %.loopexit, label %.lr.ph

.lr.ph:                                           ; preds = %.preheader
  %37 = getelementptr inbounds i8, ptr %0, i64 72
  %38 = getelementptr inbounds i8, ptr %0, i64 76
  %39 = getelementptr inbounds i8, ptr %0, i64 48
  br label %40

40:                                               ; preds = %.lr.ph, %.thread
  %41 = phi ptr [ %36, %.lr.ph ], [ %61, %.thread ]
  %.09 = phi i64 [ 0, %.lr.ph ], [ %59, %.thread ]
  switch i64 %.09, label %53 [
    i64 0, label %42
    i64 1, label %.thread
  ]

42:                                               ; preds = %40
  %43 = load ptr, ptr %41, align 8
  %.not7 = icmp eq ptr %43, null
  br i1 %.not7, label %.thread, label %44

44:                                               ; preds = %42
  %45 = getelementptr inbounds i8, ptr %41, i64 8
  %46 = load ptr, ptr %45, align 8
  %47 = icmp eq ptr %43, %46
  br i1 %47, label %48, label %52

48:                                               ; preds = %44
  %49 = load float, ptr %37, align 8
  %50 = load i8, ptr %38, align 4
  %51 = zext i8 %50 to i32
  call void @glClearBufferfi(i32 noundef 34041, i32 noundef 0, float noundef %49, i32 noundef %51)
  br label %.thread

52:                                               ; preds = %44
  call void @glClearBufferfv(i32 noundef 6145, i32 noundef 0, ptr noundef nonnull %37)
  br label %.thread

53:                                               ; preds = %40
  %54 = trunc i64 %.09 to i32
  %55 = add nsw i32 %54, -2
  %56 = load ptr, ptr %39, align 8
  %57 = getelementptr %"class.nanogui::Color", ptr %56, i64 %.09
  %58 = getelementptr i8, ptr %57, i64 -32
  call void @glClearBufferfv(i32 noundef 6144, i32 noundef %55, ptr noundef nonnull %58)
  br label %.thread

.thread:                                          ; preds = %40, %42, %52, %48, %53
  %59 = add nuw i64 %.09, 1
  %60 = load ptr, ptr %34, align 8
  %61 = load ptr, ptr %33, align 8
  %62 = ptrtoint ptr %60 to i64
  %63 = ptrtoint ptr %61 to i64
  %64 = sub i64 %62, %63
  %65 = ashr exact i64 %64, 3
  %66 = icmp ult i64 %59, %65
  br i1 %66, label %40, label %.loopexit, !llvm.loop !12

.loopexit:                                        ; preds = %.thread, %.preheader, %1
  %67 = getelementptr inbounds i8, ptr %0, i64 104
  %68 = load i32, ptr %67, align 8
  %69 = getelementptr inbounds i8, ptr %0, i64 108
  %70 = load i8, ptr %69, align 4
  %71 = and i8 %70, 1
  %72 = icmp ne i8 %71, 0
  call void @_ZN7nanogui10RenderPass14set_depth_testENS0_9DepthTestEb(ptr noundef nonnull align 8 dereferenceable(173) %0, i32 noundef %68, i1 noundef zeroext %72)
  %73 = getelementptr inbounds i8, ptr %0, i64 112
  %74 = load i32, ptr %73, align 8
  call void @_ZN7nanogui10RenderPass13set_cull_modeENS0_8CullModeE(ptr noundef nonnull align 8 dereferenceable(173) %0, i32 noundef %74)
  %75 = load i8, ptr %24, align 4
  %76 = and i8 %75, 1
  %.not6 = icmp eq i8 %76, 0
  br i1 %.not6, label %78, label %77

77:                                               ; preds = %.loopexit
  call void @glDisable(i32 noundef 3042)
  br label %78

78:                                               ; preds = %77, %.loopexit
  ret void
}